target datalayout = "e-m:e-p270:32:32-p271:32:32-p272:64:64-i64:64-i128:128-f80:128-n8:16:32:64-S128"
target triple = "x86_64-pc-linux-gnu"

%struct.XLogwrtResult = type { i64, i64 }
%struct.XLogCtlData = type { %struct.XLogCtlInsert, %struct.XLogwrtRqst, i64, %struct.FullTransactionId, i64, i64, i64, %struct.pg_atomic_uint64, i64, i64, %struct.pg_atomic_uint64, %struct.pg_atomic_uint64, %struct.pg_atomic_uint64, i64, ptr, ptr, i32, i32, i32, i32, i8, i8, i64, i64, %struct.CheckPoint, i64, i8 }
%struct.XLogCtlInsert = type { i8, i64, i64, [128 x i8], i64, i8, i32, i64, ptr }
%struct.XLogwrtRqst = type { i64, i64 }
%struct.FullTransactionId = type { i64 }
%struct.pg_atomic_uint64 = type { i64 }
%struct.CheckPoint = type { i64, i32, i32, i8, i32, %struct.FullTransactionId, i32, i32, i32, i32, i32, i32, i32, i64, i32, i32, i32 }

@XLogCtl = internal global ptr null, align 8
@LogwrtResult = internal global %struct.XLogwrtResult zeroinitializer, align 8

; Function Attrs: inlinehint nounwind uwtable
define internal i64 @pg_atomic_read_u64_impl(ptr noundef %0) #6 {
  %2 = alloca ptr, align 8
  store ptr %0, ptr %2, align 8
  %3 = load ptr, ptr %2, align 8
  %4 = getelementptr inbounds nuw %struct.pg_atomic_uint64, ptr %3, i32 0, i32 0
  %5 = load volatile i64, ptr %4, align 8
  ret i64 %5
}

; Function Attrs: inlinehint nounwind uwtable
define internal i64 @pg_atomic_read_u64(ptr noundef %0) #6 {
  %2 = alloca ptr, align 8
  store ptr %0, ptr %2, align 8
  %3 = load ptr, ptr %2, align 8
  %4 = call i64 @pg_atomic_read_u64_impl(ptr noundef %3)
  ret i64 %4
}

; Function Attrs: nounwind uwtable
define dso_local i64 @GetFlushRecPtr(ptr noundef %0) #0 {
  %2 = alloca ptr, align 8
  store ptr %0, ptr %2, align 8
  br label %3

3:                                                ; preds = %1
  %4 = load ptr, ptr @XLogCtl, align 8
  %5 = getelementptr inbounds nuw %struct.XLogCtlData, ptr %4, i32 0, i32 12
  %6 = call i64 @pg_atomic_read_u64(ptr noundef %5)
  store i64 %6, ptr getelementptr inbounds nuw (%struct.XLogwrtResult, ptr @LogwrtResult, i32 0, i32 1), align 8
  call void asm sideeffect "", "~{memory},~{dirflag},~{fpsr},~{flags}"() #16, !srcloc !70
  %7 = load ptr, ptr @XLogCtl, align 8
  %8 = getelementptr inbounds nuw %struct.XLogCtlData, ptr %7, i32 0, i32 11
  %9 = call i64 @pg_atomic_read_u64(ptr noundef %8)
  store i64 %9, ptr @LogwrtResult, align 8
  br label %10

10:                                               ; preds = %3
  %11 = load ptr, ptr %2, align 8
  %12 = icmp ne ptr %11, null
  br i1 %12, label %13, label %18

13:                                               ; preds = %10
  %14 = load ptr, ptr @XLogCtl, align 8
  %15 = getelementptr inbounds nuw %struct.XLogCtlData, ptr %14, i32 0, i32 17
  %16 = load i32, ptr %15, align 4
  %17 = load ptr, ptr %2, align 8
  store i32 %16, ptr %17, align 4
  br label %18

18:                                               ; preds = %13, %10
  %19 = load i64, ptr getelementptr inbounds nuw (%struct.XLogwrtResult, ptr @LogwrtResult, i32 0, i32 1), align 8
  ret i64 %19
}