; Function Attrs: nounwind uwtable
define dso_local i64 @GetFlushRecPtr(ptr noundef writeonly captures(address_is_null) %0) local_unnamed_addr #0 {
  %2 = load ptr, ptr @XLogCtl, align 8
  %3 = getelementptr inbounds nuw i8, ptr %2, i64 280
  %4 = load volatile i64, ptr %3, align 8
  store i64 %4, ptr @LogwrtResult.1, align 8
  tail call void asm sideeffect "", "~{memory},~{dirflag},~{fpsr},~{flags}"() #26, !srcloc !73
  %5 = load ptr, ptr @XLogCtl, align 8
  %6 = getelementptr inbounds nuw i8, ptr %5, i64 272
  %7 = load volatile i64, ptr %6, align 8
  store i64 %7, ptr @LogwrtResult.0, align 8
  %.not = icmp eq ptr %0, null
  br i1 %.not, label %11, label %8

8:                                                ; preds = %1
  %9 = getelementptr inbounds nuw i8, ptr %5, i64 316
  %10 = load i32, ptr %9, align 4
  store i32 %10, ptr %0, align 4
  br label %11

11:                                               ; preds = %8, %1
  %12 = load i64, ptr @LogwrtResult.1, align 8
  ret i64 %12
}